target datalayout = "e-m:e-p270:32:32-p271:32:32-p272:64:64-i64:64-i128:128-f80:128-n8:16:32:64-S128"
target triple = "x86_64-unknown-linux-gnu"

%"class.std::basic_string_view" = type { i64, ptr }
%"struct.google::protobuf::io::Printer::PrintOptions" = type { %"class.std::optional", i8, i8, i8, i8, i8, i8, i8 }
%"class.std::optional" = type { %"struct.std::_Optional_base" }
%"struct.std::_Optional_base" = type { %"struct.std::_Optional_payload" }
%"struct.std::_Optional_payload" = type { %"struct.std::_Optional_payload_base" }
%"struct.std::_Optional_payload_base" = type { %"union.std::_Optional_payload_base<google::protobuf::io::Printer::SourceLocation>::_Storage", i8 }
%"union.std::_Optional_payload_base<google::protobuf::io::Printer::SourceLocation>::_Storage" = type { %"struct.std::_Optional_payload_base<google::protobuf::io::Printer::SourceLocation>::_Empty_byte" }
%"struct.std::_Optional_payload_base<google::protobuf::io::Printer::SourceLocation>::_Empty_byte" = type { i8 }
%"class.absl::lts_20230802::Span.59" = type { ptr, i64 }
%"struct.google::protobuf::io::Printer::SourceLocation" = type { i8 }
%"class.absl::lts_20230802::Cleanup" = type { %"class.absl::lts_20230802::cleanup_internal::Storage" }
%"class.absl::lts_20230802::cleanup_internal::Storage" = type { i8, [7 x i8], [16 x i8] }
%"class.absl::lts_20230802::Span.60" = type { ptr, i64 }

; Function Attrs: mustprogress nounwind uwtable
define linkonce_odr hidden void @_ZNSt22_Optional_payload_baseIN6google8protobuf2io7Printer14SourceLocationEE8_StorageIS4_Lb1EEC2Ev(ptr noundef nonnull align 1 dereferenceable(1) %this) unnamed_addr #5 comdat align 2 {
entry:
  %this.addr = alloca ptr, align 8
  store ptr %this, ptr %this.addr, align 8
  ret void
}

; Function Attrs: mustprogress nounwind uwtable
define linkonce_odr hidden void @_ZNSt22_Optional_payload_baseIN6google8protobuf2io7Printer14SourceLocationEEC2Ev(ptr noundef nonnull align 1 dereferenceable(2) %this) unnamed_addr #5 comdat align 2 {
entry:
  %this.addr = alloca ptr, align 8
  store ptr %this, ptr %this.addr, align 8
  %this1 = load ptr, ptr %this.addr, align 8
  %_M_payload = getelementptr inbounds %"struct.std::_Optional_payload_base", ptr %this1, i32 0, i32 0
  call void @_ZNSt22_Optional_payload_baseIN6google8protobuf2io7Printer14SourceLocationEE8_StorageIS4_Lb1EEC2Ev(ptr noundef nonnull align 1 dereferenceable(1) %_M_payload) #3
  %_M_engaged = getelementptr inbounds %"struct.std::_Optional_payload_base", ptr %this1, i32 0, i32 1
  store i8 0, ptr %_M_engaged, align 1
  ret void
}

; Function Attrs: mustprogress nounwind uwtable
define linkonce_odr void @_ZSt10_ConstructIN6google8protobuf2io7Printer14SourceLocationEJRS4_EEvPT_DpOT0_(ptr noundef %__p, ptr noundef nonnull align 1 dereferenceable(1) %__args) #5 comdat {
entry:
  %__p.addr = alloca ptr, align 8
  %__args.addr = alloca ptr, align 8
  store ptr %__p, ptr %__p.addr, align 8
  store ptr %__args, ptr %__args.addr, align 8
  ret void
}

; Function Attrs: mustprogress nounwind uwtable
define linkonce_odr hidden void @_ZNSt17_Optional_payloadIN6google8protobuf2io7Printer14SourceLocationELb1ELb1ELb1EEC2Ev(ptr noundef nonnull align 1 dereferenceable(2) %this) unnamed_addr #5 comdat align 2 {
entry:
  %this.addr = alloca ptr, align 8
  store ptr %this, ptr %this.addr, align 8
  %this1 = load ptr, ptr %this.addr, align 8
  call void @_ZNSt22_Optional_payload_baseIN6google8protobuf2io7Printer14SourceLocationEEC2Ev(ptr noundef nonnull align 1 dereferenceable(2) %this1) #3
  ret void
}

; Function Attrs: mustprogress nounwind uwtable
define linkonce_odr hidden void @_ZNSt22_Optional_payload_baseIN6google8protobuf2io7Printer14SourceLocationEE12_M_constructIJRS4_EEEvDpOT_(ptr noundef nonnull align 1 dereferenceable(2) %this, ptr noundef nonnull align 1 dereferenceable(1) %__args) #5 comdat align 2 personality ptr @__gxx_personality_v0 {
entry:
  %this.addr = alloca ptr, align 8
  %__args.addr = alloca ptr, align 8
  store ptr %this, ptr %this.addr, align 8
  store ptr %__args, ptr %__args.addr, align 8
  %this1 = load ptr, ptr %this.addr, align 8
  %_M_payload = getelementptr inbounds %"struct.std::_Optional_payload_base", ptr %this1, i32 0, i32 0
  %0 = load ptr, ptr %__args.addr, align 8
  invoke void @_ZSt10_ConstructIN6google8protobuf2io7Printer14SourceLocationEJRS4_EEvPT_DpOT0_(ptr noundef %_M_payload, ptr noundef nonnull align 1 dereferenceable(1) %0)
          to label %invoke.cont unwind label %terminate.lpad

invoke.cont:                                      ; preds = %entry
  %_M_engaged = getelementptr inbounds %"struct.std::_Optional_payload_base", ptr %this1, i32 0, i32 1
  store i8 1, ptr %_M_engaged, align 1
  ret void

terminate.lpad:                                   ; preds = %entry
  %1 = landingpad { ptr, i32 }
          catch ptr null
  %2 = extractvalue { ptr, i32 } %1, 0
  call void @__clang_call_terminate(ptr %2) #20
  unreachable
}

; Function Attrs: mustprogress nounwind uwtable
define linkonce_odr hidden noundef nonnull align 1 dereferenceable(1) ptr @_ZNSt22_Optional_payload_baseIN6google8protobuf2io7Printer14SourceLocationEE6_M_getEv(ptr noundef nonnull align 1 dereferenceable(2) %this) #5 comdat align 2 {
entry:
  %this.addr = alloca ptr, align 8
  store ptr %this, ptr %this.addr, align 8
  %this1 = load ptr, ptr %this.addr, align 8
  %_M_payload = getelementptr inbounds %"struct.std::_Optional_payload_base", ptr %this1, i32 0, i32 0
  ret ptr %_M_payload
}

; Function Attrs: mustprogress nounwind uwtable
define linkonce_odr hidden void @_ZNSt14_Optional_baseIN6google8protobuf2io7Printer14SourceLocationELb1ELb1EEC2Ev(ptr noundef nonnull align 1 dereferenceable(2) %this) unnamed_addr #5 comdat align 2 {
entry:
  %this.addr = alloca ptr, align 8
  store ptr %this, ptr %this.addr, align 8
  %this1 = load ptr, ptr %this.addr, align 8
  %_M_payload = getelementptr inbounds %"struct.std::_Optional_base", ptr %this1, i32 0, i32 0
  call void @_ZNSt17_Optional_payloadIN6google8protobuf2io7Printer14SourceLocationELb1ELb1ELb1EEC2Ev(ptr noundef nonnull align 1 dereferenceable(2) %_M_payload) #3
  ret void
}

; Function Attrs: mustprogress nounwind uwtable
define linkonce_odr hidden void @_ZN4absl12lts_202308024SpanIKNSt7__cxx1112basic_stringIcSt11char_traitsIcESaIcEEEEC2EPS8_m(ptr noundef nonnull align 8 dereferenceable(16) %this, ptr noundef %array, i64 noundef %length) unnamed_addr #5 comdat align 2 {
entry:
  %this.addr = alloca ptr, align 8
  %array.addr = alloca ptr, align 8
  %length.addr = alloca i64, align 8
  store ptr %this, ptr %this.addr, align 8
  store ptr %array, ptr %array.addr, align 8
  store i64 %length, ptr %length.addr, align 8
  %this1 = load ptr, ptr %this.addr, align 8
  %ptr_ = getelementptr inbounds %"class.absl::lts_20230802::Span.60", ptr %this1, i32 0, i32 0
  %0 = load ptr, ptr %array.addr, align 8
  store ptr %0, ptr %ptr_, align 8
  %len_ = getelementptr inbounds %"class.absl::lts_20230802::Span.60", ptr %this1, i32 0, i32 1
  %1 = load i64, ptr %length.addr, align 8
  store i64 %1, ptr %len_, align 8
  ret void
}

; Function Attrs: mustprogress nounwind uwtable
define linkonce_odr hidden void @_ZNSt19_Optional_base_implIN6google8protobuf2io7Printer14SourceLocationESt14_Optional_baseIS4_Lb1ELb1EEE12_M_constructIJRS4_EEEvDpOT_(ptr noundef nonnull align 1 dereferenceable(1) %this, ptr noundef nonnull align 1 dereferenceable(1) %__args) #5 comdat align 2 {
entry:
  %this.addr = alloca ptr, align 8
  %__args.addr = alloca ptr, align 8
  store ptr %this, ptr %this.addr, align 8
  store ptr %__args, ptr %__args.addr, align 8
  %this1 = load ptr, ptr %this.addr, align 8
  %_M_payload = getelementptr inbounds %"struct.std::_Optional_base", ptr %this1, i32 0, i32 0
  %0 = load ptr, ptr %__args.addr, align 8
  call void @_ZNSt22_Optional_payload_baseIN6google8protobuf2io7Printer14SourceLocationEE12_M_constructIJRS4_EEEvDpOT_(ptr noundef nonnull align 1 dereferenceable(2) %_M_payload, ptr noundef nonnull align 1 dereferenceable(1) %0) #3
  ret void
}

; Function Attrs: mustprogress nounwind uwtable
define linkonce_odr hidden noundef nonnull align 1 dereferenceable(1) ptr @_ZNSt19_Optional_base_implIN6google8protobuf2io7Printer14SourceLocationESt14_Optional_baseIS4_Lb1ELb1EEE6_M_getEv(ptr noundef nonnull align 1 dereferenceable(1) %this) #5 comdat align 2 {
entry:
  %this.addr = alloca ptr, align 8
  store ptr %this, ptr %this.addr, align 8
  %this1 = load ptr, ptr %this.addr, align 8
  br label %do.body

do.body:                                          ; preds = %entry
  br label %do.cond

do.cond:                                          ; preds = %do.body
  br label %do.end

do.end:                                           ; preds = %do.cond
  %_M_payload = getelementptr inbounds %"struct.std::_Optional_base", ptr %this1, i32 0, i32 0
  %call = call noundef nonnull align 1 dereferenceable(1) ptr @_ZNSt22_Optional_payload_baseIN6google8protobuf2io7Printer14SourceLocationEE6_M_getEv(ptr noundef nonnull align 1 dereferenceable(2) %_M_payload) #3
  ret ptr %call
}

; Function Attrs: mustprogress nounwind uwtable
define linkonce_odr hidden noundef zeroext i1 @_ZNKSt19_Optional_base_implIN6google8protobuf2io7Printer14SourceLocationESt14_Optional_baseIS4_Lb1ELb1EEE13_M_is_engagedEv(ptr noundef nonnull align 1 dereferenceable(1) %this) #5 comdat align 2 {
entry:
  %this.addr = alloca ptr, align 8
  store ptr %this, ptr %this.addr, align 8
  %this1 = load ptr, ptr %this.addr, align 8
  %_M_payload = getelementptr inbounds %"struct.std::_Optional_base", ptr %this1, i32 0, i32 0
  %_M_engaged = getelementptr inbounds %"struct.std::_Optional_payload_base", ptr %_M_payload, i32 0, i32 1
  %0 = load i8, ptr %_M_engaged, align 1
  %tobool = trunc i8 %0 to i1
  ret i1 %tobool
}

; Function Attrs: mustprogress nounwind uwtable
define linkonce_odr hidden void @_ZNSt8optionalIN6google8protobuf2io7Printer14SourceLocationEEC2Ev(ptr noundef nonnull align 1 dereferenceable(2) %this) unnamed_addr #5 comdat align 2 {
entry:
  %this.addr = alloca ptr, align 8
  store ptr %this, ptr %this.addr, align 8
  %this1 = load ptr, ptr %this.addr, align 8
  call void @_ZNSt14_Optional_baseIN6google8protobuf2io7Printer14SourceLocationELb1ELb1EEC2Ev(ptr noundef nonnull align 1 dereferenceable(2) %this1) #3
  ret void
}

; Function Attrs: mustprogress nounwind uwtable
define linkonce_odr hidden void @_ZN4absl12lts_202308024SpanIKNSt7__cxx1112basic_stringIcSt11char_traitsIcESaIcEEEEC2Ev(ptr noundef nonnull align 8 dereferenceable(16) %this) unnamed_addr #5 comdat align 2 {
entry:
  %this.addr = alloca ptr, align 8
  store ptr %this, ptr %this.addr, align 8
  %this1 = load ptr, ptr %this.addr, align 8
  call void @_ZN4absl12lts_202308024SpanIKNSt7__cxx1112basic_stringIcSt11char_traitsIcESaIcEEEEC2EPS8_m(ptr noundef nonnull align 8 dereferenceable(16) %this1, ptr noundef null, i64 noundef 0) #3
  ret void
}

; Function Attrs: mustprogress nounwind uwtable
define linkonce_odr hidden noundef nonnull align 1 dereferenceable(2) ptr @_ZNSt8optionalIN6google8protobuf2io7Printer14SourceLocationEEaSIRS4_EENSt9enable_ifIX7__and_vISt6__not_ISt7is_sameIS5_NSt9remove_cvINSt16remove_referenceIT_E4typeEE4typeEEES9_ISt6__and_IJSt9is_scalarIS4_ESA_IS4_NSt5decayISD_E4typeEEEEESt16is_constructibleIS4_JSD_EESt13is_assignableIS7_SD_EEERS5_E4typeEOSD_(ptr noundef nonnull align 1 dereferenceable(2) %this, ptr noundef nonnull align 1 dereferenceable(1) %__u) #5 comdat align 2 {
entry:
  %this.addr = alloca ptr, align 8
  %__u.addr = alloca ptr, align 8
  store ptr %this, ptr %this.addr, align 8
  store ptr %__u, ptr %__u.addr, align 8
  %this1 = load ptr, ptr %this.addr, align 8
  %call = call noundef zeroext i1 @_ZNKSt19_Optional_base_implIN6google8protobuf2io7Printer14SourceLocationESt14_Optional_baseIS4_Lb1ELb1EEE13_M_is_engagedEv(ptr noundef nonnull align 1 dereferenceable(1) %this1) #3
  br i1 %call, label %if.then, label %if.else

if.then:                                          ; preds = %entry
  %call2 = call noundef nonnull align 1 dereferenceable(1) ptr @_ZNSt19_Optional_base_implIN6google8protobuf2io7Printer14SourceLocationESt14_Optional_baseIS4_Lb1ELb1EEE6_M_getEv(ptr noundef nonnull align 1 dereferenceable(1) %this1) #3
  br label %if.end

if.else:                                          ; preds = %entry
  %0 = load ptr, ptr %__u.addr, align 8
  call void @_ZNSt19_Optional_base_implIN6google8protobuf2io7Printer14SourceLocationESt14_Optional_baseIS4_Lb1ELb1EEE12_M_constructIJRS4_EEEvDpOT_(ptr noundef nonnull align 1 dereferenceable(1) %this1, ptr noundef nonnull align 1 dereferenceable(1) %0) #3
  br label %if.end

if.end:                                           ; preds = %if.else, %if.then
  ret ptr %this1
}

; Function Attrs: mustprogress nounwind uwtable
define linkonce_odr hidden void @_ZN6google8protobuf2io7Printer12PrintOptionsC2Ev(ptr noundef nonnull align 1 dereferenceable(9) %this) unnamed_addr #5 comdat align 2 {
entry:
  %this.addr = alloca ptr, align 8
  store ptr %this, ptr %this.addr, align 8
  %this1 = load ptr, ptr %this.addr, align 8
  %loc = getelementptr inbounds %"struct.google::protobuf::io::Printer::PrintOptions", ptr %this1, i32 0, i32 0
  call void @_ZNSt8optionalIN6google8protobuf2io7Printer14SourceLocationEEC2Ev(ptr noundef nonnull align 1 dereferenceable(2) %loc) #3
  %checks_are_debug_only = getelementptr inbounds %"struct.google::protobuf::io::Printer::PrintOptions", ptr %this1, i32 0, i32 1
  store i8 0, ptr %checks_are_debug_only, align 1
  %use_substitution_map = getelementptr inbounds %"struct.google::protobuf::io::Printer::PrintOptions", ptr %this1, i32 0, i32 2
  store i8 0, ptr %use_substitution_map, align 1
  %use_curly_brace_substitutions = getelementptr inbounds %"struct.google::protobuf::io::Printer::PrintOptions", ptr %this1, i32 0, i32 3
  store i8 0, ptr %use_curly_brace_substitutions, align 1
  %allow_digit_substitutions = getelementptr inbounds %"struct.google::protobuf::io::Printer::PrintOptions", ptr %this1, i32 0, i32 4
  store i8 1, ptr %allow_digit_substitutions, align 1
  %strip_spaces_around_vars = getelementptr inbounds %"struct.google::protobuf::io::Printer::PrintOptions", ptr %this1, i32 0, i32 5
  store i8 1, ptr %strip_spaces_around_vars, align 1
  %strip_raw_string_indentation = getelementptr inbounds %"struct.google::protobuf::io::Printer::PrintOptions", ptr %this1, i32 0, i32 6
  store i8 0, ptr %strip_raw_string_indentation, align 1
  %use_annotation_frames = getelementptr inbounds %"struct.google::protobuf::io::Printer::PrintOptions", ptr %this1, i32 0, i32 7
  store i8 1, ptr %use_annotation_frames, align 1
  ret void
}

; Function Attrs: mustprogress uwtable
define void @_ZN6google8protobuf2io7Printer4EmitEN4absl12lts_202308024SpanIKNS2_3SubEEESt17basic_string_viewIcSt11char_traitsIcEENS2_14SourceLocationE(ptr noundef nonnull align 8 dereferenceable(256) %this, ptr %vars.coerce0, i64 %vars.coerce1, i64 %format.coerce0, ptr %format.coerce1) #4 align 2 personality ptr @__gxx_personality_v0 {
entry:
  %vars = alloca %"class.absl::lts_20230802::Span.59", align 8
  %format = alloca %"class.std::basic_string_view", align 8
  %loc = alloca %"struct.google::protobuf::io::Printer::SourceLocation", align 1
  %this.addr = alloca ptr, align 8
  %opts = alloca %"struct.google::protobuf::io::Printer::PrintOptions", align 1
  %defs = alloca %"class.absl::lts_20230802::Cleanup", align 8
  %agg.tmp = alloca %"class.absl::lts_20230802::Span.59", align 8
  %agg.tmp3 = alloca %"class.std::basic_string_view", align 8
  %agg.tmp4 = alloca %"class.absl::lts_20230802::Span.60", align 8
  %agg.tmp5 = alloca %"struct.google::protobuf::io::Printer::PrintOptions", align 8
  %exn.slot = alloca ptr, align 8
  %ehselector.slot = alloca i32, align 4
  %0 = getelementptr inbounds { ptr, i64 }, ptr %vars, i32 0, i32 0
  store ptr %vars.coerce0, ptr %0, align 8
  %1 = getelementptr inbounds { ptr, i64 }, ptr %vars, i32 0, i32 1
  store i64 %vars.coerce1, ptr %1, align 8
  %2 = getelementptr inbounds { i64, ptr }, ptr %format, i32 0, i32 0
  store i64 %format.coerce0, ptr %2, align 8
  %3 = getelementptr inbounds { i64, ptr }, ptr %format, i32 0, i32 1
  store ptr %format.coerce1, ptr %3, align 8
  store ptr %this, ptr %this.addr, align 8
  %this1 = load ptr, ptr %this.addr, align 8
  call void @_ZN6google8protobuf2io7Printer12PrintOptionsC2Ev(ptr noundef nonnull align 1 dereferenceable(9) %opts) #3
  %strip_raw_string_indentation = getelementptr inbounds %"struct.google::protobuf::io::Printer::PrintOptions", ptr %opts, i32 0, i32 6
  store i8 1, ptr %strip_raw_string_indentation, align 1
  %loc2 = getelementptr inbounds %"struct.google::protobuf::io::Printer::PrintOptions", ptr %opts, i32 0, i32 0
  %call = call noundef nonnull align 1 dereferenceable(2) ptr @_ZNSt8optionalIN6google8protobuf2io7Printer14SourceLocationEEaSIRS4_EENSt9enable_ifIX7__and_vISt6__not_ISt7is_sameIS5_NSt9remove_cvINSt16remove_referenceIT_E4typeEE4typeEEES9_ISt6__and_IJSt9is_scalarIS4_ESA_IS4_NSt5decayISD_E4typeEEEEESt16is_constructibleIS4_JSD_EESt13is_assignableIS7_SD_EEERS5_E4typeEOSD_(ptr noundef nonnull align 1 dereferenceable(2) %loc2, ptr noundef nonnull align 1 dereferenceable(1) %loc) #3
  call void @llvm.memcpy.p0.p0.i64(ptr align 8 %agg.tmp, ptr align 8 %vars, i64 16, i1 false)
  %4 = getelementptr inbounds { ptr, i64 }, ptr %agg.tmp, i32 0, i32 0
  %5 = load ptr, ptr %4, align 8
  %6 = getelementptr inbounds { ptr, i64 }, ptr %agg.tmp, i32 0, i32 1
  %7 = load i64, ptr %6, align 8
  call void @_ZN6google8protobuf2io7Printer8WithDefsEN4absl12lts_202308024SpanIKNS2_3SubEEEb(ptr sret(%"class.absl::lts_20230802::Cleanup") align 8 %defs, ptr noundef nonnull align 8 dereferenceable(256) %this1, ptr %5, i64 %7, i1 noundef zeroext true)
  call void @llvm.memcpy.p0.p0.i64(ptr align 8 %agg.tmp3, ptr align 8 %format, i64 16, i1 false)
  call void @_ZN4absl12lts_202308024SpanIKNSt7__cxx1112basic_stringIcSt11char_traitsIcESaIcEEEEC2Ev(ptr noundef nonnull align 8 dereferenceable(16) %agg.tmp4) #3
  call void @llvm.memcpy.p0.p0.i64(ptr align 1 %agg.tmp5, ptr align 1 %opts, i64 9, i1 false)
  %8 = getelementptr inbounds { i64, ptr }, ptr %agg.tmp3, i32 0, i32 0
  %9 = load i64, ptr %8, align 8
  %10 = getelementptr inbounds { i64, ptr }, ptr %agg.tmp3, i32 0, i32 1
  %11 = load ptr, ptr %10, align 8
  %12 = getelementptr inbounds { ptr, i64 }, ptr %agg.tmp4, i32 0, i32 0
  %13 = load ptr, ptr %12, align 8
  %14 = getelementptr inbounds { ptr, i64 }, ptr %agg.tmp4, i32 0, i32 1
  %15 = load i64, ptr %14, align 8
  invoke void @_ZN6google8protobuf2io7Printer9PrintImplESt17basic_string_viewIcSt11char_traitsIcEEN4absl12lts_202308024SpanIKNSt7__cxx1112basic_stringIcS5_SaIcEEEEENS2_12PrintOptionsE(ptr noundef nonnull align 8 dereferenceable(256) %this1, i64 %9, ptr %11, ptr %13, i64 %15, ptr noundef byval(%"struct.google::protobuf::io::Printer::PrintOptions") align 8 %agg.tmp5)
          to label %invoke.cont unwind label %lpad

invoke.cont:                                      ; preds = %entry
  call void @_ZN4absl12lts_202308027CleanupINS0_16cleanup_internal3TagEZN6google8protobuf2io7Printer8WithDefsENS0_4SpanIKNS7_3SubEEEbEUlvE_ED2Ev(ptr noundef nonnull align 8 dereferenceable(24) %defs) #3
  ret void

lpad:                                             ; preds = %entry
  %16 = landingpad { ptr, i32 }
          cleanup
  %17 = extractvalue { ptr, i32 } %16, 0
  store ptr %17, ptr %exn.slot, align 8
  %18 = extractvalue { ptr, i32 } %16, 1
  store i32 %18, ptr %ehselector.slot, align 4
  call void @_ZN4absl12lts_202308027CleanupINS0_16cleanup_internal3TagEZN6google8protobuf2io7Printer8WithDefsENS0_4SpanIKNS7_3SubEEEbEUlvE_ED2Ev(ptr noundef nonnull align 8 dereferenceable(24) %defs) #3
  br label %eh.resume

eh.resume:                                        ; preds = %lpad
  %exn = load ptr, ptr %exn.slot, align 8
  %sel = load i32, ptr %ehselector.slot, align 4
  %lpad.val = insertvalue { ptr, i32 } poison, ptr %exn, 0
  %lpad.val6 = insertvalue { ptr, i32 } %lpad.val, i32 %sel, 1
  resume { ptr, i32 } %lpad.val6
}