; Function Attrs: mustprogress uwtable
define void @_ZN6google8protobuf2io7Printer4EmitEN4absl12lts_202308024SpanIKNS2_3SubEEESt17basic_string_viewIcSt11char_traitsIcEENS2_14SourceLocationE(ptr noundef nonnull align 8 dereferenceable(256) %this, ptr %vars.coerce0, i64 %vars.coerce1, i64 %format.coerce0, ptr %format.coerce1) local_unnamed_addr #3 align 2 personality ptr @__gxx_personality_v0 {
_ZNSt8optionalIN6google8protobuf2io7Printer14SourceLocationEEaSIRS4_EENSt9enable_ifIX7__and_vISt6__not_ISt7is_sameIS5_NSt9remove_cvINSt16remove_referenceIT_E4typeEE4typeEEES9_ISt6__and_IJSt9is_scalarIS4_ESA_IS4_NSt5decayISD_E4typeEEEEESt16is_constructibleIS4_JSD_EESt13is_assignableIS7_SD_EEERS5_E4typeEOSD_.exit:
  %defs = alloca %"class.absl::lts_20230802::Cleanup", align 8
  %agg.tmp5 = alloca %"struct.google::protobuf::io::Printer::PrintOptions", align 8
  call void @_ZN6google8protobuf2io7Printer8WithDefsEN4absl12lts_202308024SpanIKNS2_3SubEEEb(ptr nonnull sret(%"class.absl::lts_20230802::Cleanup") align 8 %defs, ptr noundef nonnull align 8 dereferenceable(256) %this, ptr %vars.coerce0, i64 %vars.coerce1, i1 noundef zeroext true)
  %opts.sroa.1.0.agg.tmp5.sroa_idx = getelementptr inbounds i8, ptr %agg.tmp5, i64 1
  store i32 1, ptr %opts.sroa.1.0.agg.tmp5.sroa_idx, align 1
  %opts.sroa.4.0.agg.tmp5.sroa_idx = getelementptr inbounds i8, ptr %agg.tmp5, i64 5
  store i32 16843009, ptr %opts.sroa.4.0.agg.tmp5.sroa_idx, align 1
  invoke void @_ZN6google8protobuf2io7Printer9PrintImplESt17basic_string_viewIcSt11char_traitsIcEEN4absl12lts_202308024SpanIKNSt7__cxx1112basic_stringIcS5_SaIcEEEEENS2_12PrintOptionsE(ptr noundef nonnull align 8 dereferenceable(256) %this, i64 %format.coerce0, ptr %format.coerce1, ptr null, i64 0, ptr noundef nonnull byval(%"struct.google::protobuf::io::Printer::PrintOptions") align 8 %agg.tmp5)
          to label %invoke.cont unwind label %lpad

invoke.cont:                                      ; preds = %_ZNSt8optionalIN6google8protobuf2io7Printer14SourceLocationEEaSIRS4_EENSt9enable_ifIX7__and_vISt6__not_ISt7is_sameIS5_NSt9remove_cvINSt16remove_referenceIT_E4typeEE4typeEEES9_ISt6__and_IJSt9is_scalarIS4_ESA_IS4_NSt5decayISD_E4typeEEEEESt16is_constructibleIS4_JSD_EESt13is_assignableIS7_SD_EEERS5_E4typeEOSD_.exit
  %0 = load i8, ptr %defs, align 8
  %1 = and i8 %0, 1
  %tobool.i.not.i1 = icmp eq i8 %1, 0
  br i1 %tobool.i.not.i1, label %_ZN4absl12lts_202308027CleanupINS0_16cleanup_internal3TagEZN6google8protobuf2io7Printer8WithDefsENS0_4SpanIKNS7_3SubEEEbEUlvE_ED2Ev.exit, label %if.then.i

if.then.i:                                        ; preds = %invoke.cont
  %callback_buffer_.i.i.i.i = getelementptr inbounds i8, ptr %defs, i64 8
  %2 = load ptr, ptr %callback_buffer_.i.i.i.i, align 8
  %_M_finish.i.i.i.i = getelementptr inbounds i8, ptr %2, i64 160
  %3 = load ptr, ptr %_M_finish.i.i.i.i, align 8
  %incdec.ptr.i.i.i.i = getelementptr inbounds i8, ptr %3, i64 -32
  store ptr %incdec.ptr.i.i.i.i, ptr %_M_finish.i.i.i.i, align 8
  %_M_manager.i.i.i.i.i.i.i.i = getelementptr inbounds i8, ptr %3, i64 -16
  %4 = load ptr, ptr %_M_manager.i.i.i.i.i.i.i.i, align 8
  %tobool.not.i.i.i.i.i.i.i.i = icmp eq ptr %4, null
  br i1 %tobool.not.i.i.i.i.i.i.i.i, label %_ZNSt6vectorISt8functionIFSt8optionalIN6google8protobuf2io7Printer9ValueImplILb0EEEESt17basic_string_viewIcSt11char_traitsIcEEEESaISE_EE8pop_backEv.exit.i.i.i, label %if.then.i.i.i.i.i.i.i.i

if.then.i.i.i.i.i.i.i.i:                          ; preds = %if.then.i
  %call.i.i.i.i.i.i.i.i = invoke noundef zeroext i1 %4(ptr noundef nonnull align 8 dereferenceable(16) %incdec.ptr.i.i.i.i, ptr noundef nonnull align 8 dereferenceable(16) %incdec.ptr.i.i.i.i, i32 noundef 3)
          to label %_ZNSt6vectorISt8functionIFSt8optionalIN6google8protobuf2io7Printer9ValueImplILb0EEEESt17basic_string_viewIcSt11char_traitsIcEEEESaISE_EE8pop_backEv.exit.i.i.i unwind label %terminate.lpad.i.i.i.i.i.i.i.i

terminate.lpad.i.i.i.i.i.i.i.i:                   ; preds = %if.then.i.i.i.i.i.i.i.i
  %5 = landingpad { ptr, i32 }
          catch ptr null
  %6 = extractvalue { ptr, i32 } %5, 0
  call void @__clang_call_terminate(ptr %6) #29
  unreachable

_ZNSt6vectorISt8functionIFSt8optionalIN6google8protobuf2io7Printer9ValueImplILb0EEEESt17basic_string_viewIcSt11char_traitsIcEEEESaISE_EE8pop_backEv.exit.i.i.i: ; preds = %if.then.i.i.i.i.i.i.i.i, %if.then.i
  %7 = getelementptr inbounds i8, ptr %defs, i64 16
  %8 = load i8, ptr %7, align 8
  %9 = and i8 %8, 1
  %tobool.not.i.i.i = icmp eq i8 %9, 0
  br i1 %tobool.not.i.i.i, label %_ZN4absl12lts_202308027CleanupINS0_16cleanup_internal3TagEZN6google8protobuf2io7Printer8WithDefsENS0_4SpanIKNS7_3SubEEEbEUlvE_ED2Ev.exit, label %if.then.i.i.i

if.then.i.i.i:                                    ; preds = %_ZNSt6vectorISt8functionIFSt8optionalIN6google8protobuf2io7Printer9ValueImplILb0EEEESt17basic_string_viewIcSt11char_traitsIcEEEESaISE_EE8pop_backEv.exit.i.i.i
  %_M_finish.i1.i.i.i = getelementptr inbounds i8, ptr %2, i64 184
  %10 = load ptr, ptr %_M_finish.i1.i.i.i, align 8
  %incdec.ptr.i2.i.i.i = getelementptr inbounds i8, ptr %10, i64 -32
  store ptr %incdec.ptr.i2.i.i.i, ptr %_M_finish.i1.i.i.i, align 8
  %_M_manager.i.i.i.i.i3.i.i.i = getelementptr inbounds i8, ptr %10, i64 -16
  %11 = load ptr, ptr %_M_manager.i.i.i.i.i3.i.i.i, align 8
  %tobool.not.i.i.i.i.i4.i.i.i = icmp eq ptr %11, null
  br i1 %tobool.not.i.i.i.i.i4.i.i.i, label %_ZN4absl12lts_202308027CleanupINS0_16cleanup_internal3TagEZN6google8protobuf2io7Printer8WithDefsENS0_4SpanIKNS7_3SubEEEbEUlvE_ED2Ev.exit, label %if.then.i.i.i.i.i5.i.i.i

if.then.i.i.i.i.i5.i.i.i:                         ; preds = %if.then.i.i.i
  %call.i.i.i.i.i6.i.i.i = invoke noundef zeroext i1 %11(ptr noundef nonnull align 8 dereferenceable(16) %incdec.ptr.i2.i.i.i, ptr noundef nonnull align 8 dereferenceable(16) %incdec.ptr.i2.i.i.i, i32 noundef 3)
          to label %_ZN4absl12lts_202308027CleanupINS0_16cleanup_internal3TagEZN6google8protobuf2io7Printer8WithDefsENS0_4SpanIKNS7_3SubEEEbEUlvE_ED2Ev.exit unwind label %terminate.lpad.i.i.i.i.i7.i.i.i

terminate.lpad.i.i.i.i.i7.i.i.i:                  ; preds = %if.then.i.i.i.i.i5.i.i.i
  %12 = landingpad { ptr, i32 }
          catch ptr null
  %13 = extractvalue { ptr, i32 } %12, 0
  call void @__clang_call_terminate(ptr %13) #29
  unreachable

_ZN4absl12lts_202308027CleanupINS0_16cleanup_internal3TagEZN6google8protobuf2io7Printer8WithDefsENS0_4SpanIKNS7_3SubEEEbEUlvE_ED2Ev.exit: ; preds = %_ZNSt6vectorISt8functionIFSt8optionalIN6google8protobuf2io7Printer9ValueImplILb0EEEESt17basic_string_viewIcSt11char_traitsIcEEEESaISE_EE8pop_backEv.exit.i.i.i, %if.then.i.i.i, %if.then.i.i.i.i.i5.i.i.i, %invoke.cont
  ret void

lpad:                                             ; preds = %_ZNSt8optionalIN6google8protobuf2io7Printer14SourceLocationEEaSIRS4_EENSt9enable_ifIX7__and_vISt6__not_ISt7is_sameIS5_NSt9remove_cvINSt16remove_referenceIT_E4typeEE4typeEEES9_ISt6__and_IJSt9is_scalarIS4_ESA_IS4_NSt5decayISD_E4typeEEEEESt16is_constructibleIS4_JSD_EESt13is_assignableIS7_SD_EEERS5_E4typeEOSD_.exit
  %14 = landingpad { ptr, i32 }
          cleanup
  call void @_ZN4absl12lts_202308027CleanupINS0_16cleanup_internal3TagEZN6google8protobuf2io7Printer8WithDefsENS0_4SpanIKNS7_3SubEEEbEUlvE_ED2Ev(ptr noundef nonnull align 8 dereferenceable(24) %defs) #24
  resume { ptr, i32 } %14
}